Certificate:
    Data:
        Version: 3 (0x2)
        Serial Number:
            08:92:f8:4d:93:33:0b:61:e4:f7:a1:11:3c:af:ce:90
        Signature Algorithm: sha256WithRSAEncryption
        Issuer: C=GB, ST=Greater Manchester, L=Salford, O=COMODO CA Limited, CN=COMODO RSA Domain Validation Secure Server CA
        Validity
            Not Before: Jan 25 00:00:00 2016 GMT
            Not After : Jan 24 23:59:59 2017 GMT
        Subject: OU=Domain Control Validated, OU=PositiveSSL, CN=54.187.155.238:9000
        Subject Public Key Info:
            Public Key Algorithm: rsaEncryption
            RSA Public Key: (2048 bit)
                Modulus (2048 bit):
                    00:c4:12:c6:98:26:8e:ce:55:26:5a:e8:2a:76:25:
                    5c:d5:3c:32:32:73:b4:87:c0:77:b6:00:f4:25:cf:
                    58:f2:de:8a:43:e1:3e:ea:e2:c0:b8:bf:b4:fd:38:
                    0e:9f:e6:40:f7:5b:1c:84:61:d3:4a:ba:41:9b:26:
                    59:96:d0:07:af:b8:30:11:99:83:fd:80:21:3e:28:
                    9d:76:09:09:b7:b3:5a:ec:a4:26:95:0e:67:e5:5c:
                    7a:96:87:dc:f4:f5:62:5c:61:5b:b4:35:48:59:e8:
                    05:d9:97:6d:ba:81:df:73:ce:39:4f:08:8b:6e:7d:
                    09:8b:74:04:c6:1a:7b:72:98:ab:b4:2c:9a:ff:31:
                    d2:c4:ab:c0:42:e1:07:61:bf:76:05:5c:d6:a8:75:
                    05:4f:2b:00:09:56:c8:e9:2a:97:3d:59:fb:c3:b3:
                    97:da:bc:11:0b:3c:e0:12:a8:b9:9d:ef:11:78:8e:
                    fd:e3:ea:7a:ab:c6:f6:31:e6:9e:f5:e5:7b:48:3f:
                    b1:9b:c3:f1:e7:9c:a0:3a:e2:df:4a:69:da:73:1a:
                    6f:c5:b5:e5:38:6a:0d:d9:bd:de:5a:b3:76:43:84:
                    2b:d2:d6:24:93:fa:7f:b8:7b:de:09:39:9a:6c:fa:
                    a8:64:87:46:7f:08:86:37:ba:28:d0:64:9b:84:5e:
                    91:71
                Exponent: 65537 (0x10001)
        X509v3 extensions:
            X509v3 Authority Key Identifier: 
                keyid:90:AF:6A:3A:94:5A:0B:D8:90:EA:12:56:73:DF:43:B4:3A:28:DA:E7

            X509v3 Subject Key Identifier: 
                A3:D1:63:69:7F:99:DA:B0:85:25:1B:18:3D:56:01:B2:4E:A9:1B:76
            X509v3 Key Usage: critical
                Digital Signature, Key Encipherment
            X509v3 Basic Constraints: critical
                CA:FALSE
            X509v3 Extended Key Usage: 
                TLS Web Server Authentication, TLS Web Client Authentication
            X509v3 Certificate Policies: 
                Policy: 1.3.6.1.4.1.6449.1.2.2.7
                  CPS: https://secure.comodo.com/CPS
                Policy: 2.23.140.1.2.1

            X509v3 CRL Distribution Points: 
                URI:http://crl.comodoca.com/COMODORSADomainValidationSecureServerCA.crl

            Authority Information Access: 
                CA Issuers - URI:http://crt.comodoca.com/COMODORSADomainValidationSecureServerCA.crt
                OCSP - URI:http://ocsp.comodoca.com

            X509v3 Subject Alternative Name: 
                DNS:54.187.155.238:9000, DNS:www.54.187.155.238:9000
    Signature Algorithm: sha256WithRSAEncryption
        2d:a5:c3:b8:58:10:c1:ad:a9:b2:f8:d6:73:1c:01:04:37:a1:
        a4:3d:aa:10:dc:76:51:f5:37:50:e5:f2:f4:d6:6a:57:9d:c6:
        33:61:aa:79:c6:8d:b1:ba:c3:bf:c9:2d:42:0a:cf:ad:db:b5:
        a1:fa:40:97:c5:49:d9:13:07:59:18:d7:5f:91:36:cf:ef:d8:
        2b:88:dc:57:0f:a5:0e:fc:0a:83:b7:e7:0d:d5:5c:50:09:d2:
        cb:06:45:83:ac:52:d1:15:e2:b9:01:34:06:41:f6:5c:98:44:
        4f:e0:b8:b5:ce:09:b5:c9:39:25:a7:8d:bd:e2:d5:26:1f:ee:
        32:7f:72:37:0f:0e:02:3e:b3:6b:e7:4d:5a:b7:6b:5c:ef:cd:
        df:26:2d:cb:c5:2f:a7:b4:3c:e9:d7:dd:0a:52:f8:1f:33:5f:
        89:bc:84:52:13:85:6f:0f:56:24:e7:12:da:02:ab:4f:1d:e5:
        db:0c:aa:7e:74:9b:6c:21:09:70:f5:1d:79:dd:ac:a2:10:f0:
        24:a8:e9:36:9e:21:dd:57:65:c9:36:c8:23:54:8f:12:93:69:
        b5:4a:77:4d:b0:c0:ca:b0:04:03:6f:2d:68:22:80:e9:f6:7d:
        5a:99:f0:c9:d6:71:dd:18:13:21:f7:93:ef:c7:d8:18:90:77:
        46:3b:26:d7
-----BEGIN CERTIFICATE-----
MIIFTjCCBDagAwIBAgIQCJL4TZMzC2Hk96ERPK/OkDANBgkqhkiG9w0BAQsFADCB
kDELMAkGA1UEBhMCR0IxGzAZBgNVBAgTEkdyZWF0ZXIgTWFuY2hlc3RlcjEQMA4G
A1UEBxMHU2FsZm9yZDEaMBgGA1UEChMRQ09NT0RPIENBIExpbWl0ZWQxNjA0BgNV
BAMTLUNPTU9ETyBSU0EgRG9tYWluIFZhbGlkYXRpb24gU2VjdXJlIFNlcnZlciBD
QTAeFw0xNjAxMjUwMDAwMDBaFw0xNzAxMjQyMzU5NTlaMFIxITAfBgNVBAsTGERv
bWFpbiBDb250cm9sIFZhbGlkYXRlZDEUMBIGA1UECxMLUG9zaXRpdmVTU0wxFzAV
BgNVBAMTDm5pYmJsZS5jb2xsZWdlMIIBIjANBgkqhkiG9w0BAQEFAAOCAQ8AMIIB
CgKCAQEAxBLGmCaOzlUmWugqdiVc1TwyMnO0h8B3tgD0Jc9Y8t6KQ+E+6uLAuL+0
/TgOn+ZA91schGHTSrpBmyZZltAHr7gwEZmD/YAhPiiddgkJt7Na7KQmlQ5n5Vx6
lofc9PViXGFbtDVIWegF2ZdtuoHfc845TwiLbn0Ji3QExhp7cpirtCya/zHSxKvA
QuEHYb92BVzWqHUFTysACVbI6SqXPVn7w7OX2rwRCzzgEqi5ne8ReI794+p6q8b2
Meae9eV7SD+xm8Px55ygOuLfSmnacxpvxbXlOGoN2b3eWrN2Q4Qr0tYkk/p/uHve
CTmabPqoZIdGfwiGN7oo0GSbhF6RcQIDAQABo4IB3zCCAdswHwYDVR0jBBgwFoAU
kK9qOpRaC9iQ6hJWc99DtDoo2ucwHQYDVR0OBBYEFKPRY2l/mdqwhSUbGD1WAbJO
qRt2MA4GA1UdDwEB/wQEAwIFoDAMBgNVHRMBAf8EAjAAMB0GA1UdJQQWMBQGCCsG
AQUFBwMBBggrBgEFBQcDAjBPBgNVHSAESDBGMDoGCysGAQQBsjEBAgIHMCswKQYI
KwYBBQUHAgEWHWh0dHBzOi8vc2VjdXJlLmNvbW9kby5jb20vQ1BTMAgGBmeBDAEC
ATBUBgNVHR8ETTBLMEmgR6BFhkNodHRwOi8vY3JsLmNvbW9kb2NhLmNvbS9DT01P
RE9SU0FEb21haW5WYWxpZGF0aW9uU2VjdXJlU2VydmVyQ0EuY3JsMIGFBggrBgEF
BQcBAQR5MHcwTwYIKwYBBQUHMAKGQ2h0dHA6Ly9jcnQuY29tb2RvY2EuY29tL0NP
TU9ET1JTQURvbWFpblZhbGlkYXRpb25TZWN1cmVTZXJ2ZXJDQS5jcnQwJAYIKwYB
BQUHMAGGGGh0dHA6Ly9vY3NwLmNvbW9kb2NhLmNvbTAtBgNVHREEJjAkgg5uaWJi
bGUuY29sbGVnZYISd3d3Lm5pYmJsZS5jb2xsZWdlMA0GCSqGSIb3DQEBCwUAA4IB
AQAtpcO4WBDBramy+NZzHAEEN6GkPaoQ3HZR9TdQ5fL01mpXncYzYap5xo2xusO/
yS1CCs+t27Wh+kCXxUnZEwdZGNdfkTbP79griNxXD6UO/AqDt+cN1VxQCdLLBkWD
rFLRFeK5ATQGQfZcmERP4Li1zgm1yTklp4294tUmH+4yf3I3Dw4CPrNr501at2tc
783fJi3LxS+ntDzp190KUvgfM1+JvIRSE4VvD1Yk5xLaAqtPHeXbDKp+dJtsIQlw
9R153ayiEPAkqOk2niHdV2XJNsgjVI8Sk2m1SndNsMDKsAQDby1oIoDp9n1amfDJ
1nHdGBMh95Pvx9gYkHdGOybX
-----END CERTIFICATE-----

Certificate:
    Data:
        Version: 3 (0x2)
        Serial Number:
            2b:2e:6e:ea:d9:75:36:6c:14:8a:6e:db:a3:7c:8c:07
        Signature Algorithm: sha384WithRSAEncryption
        Issuer: C=GB, ST=Greater Manchester, L=Salford, O=COMODO CA Limited, CN=COMODO RSA Certification Authority
        Validity
            Not Before: Feb 12 00:00:00 2014 GMT
            Not After : Feb 11 23:59:59 2029 GMT
        Subject: C=GB, ST=Greater Manchester, L=Salford, O=COMODO CA Limited, CN=COMODO RSA Domain Validation Secure Server CA
        Subject Public Key Info:
            Public Key Algorithm: rsaEncryption
            RSA Public Key: (2048 bit)
                Modulus (2048 bit):
                    00:8e:c2:02:19:e1:a0:59:a4:eb:38:35:8d:2c:fd:
                    01:d0:d3:49:c0:64:c7:0b:62:05:45:16:3a:a8:a0:
                    c0:0c:02:7f:1d:cc:db:c4:a1:6d:77:03:a3:0f:86:
                    f9:e3:06:9c:3e:0b:81:8a:9b:49:1b:ad:03:be:fa:
                    4b:db:8c:20:ed:d5:ce:5e:65:8e:3e:0d:af:4c:c2:
                    b0:b7:45:5e:52:2f:34:de:48:24:64:b4:41:ae:00:
                    97:f7:be:67:de:9e:d0:7a:a7:53:80:3b:7c:ad:f5:
                    96:55:6f:97:47:0a:7c:85:8b:22:97:8d:b3:84:e0:
                    96:57:d0:70:18:60:96:8f:ee:2d:07:93:9d:a1:ba:
                    ca:d1:cd:7b:e9:c4:2a:9a:28:21:91:4d:6f:92:4f:
                    25:a5:f2:7a:35:dd:26:dc:46:a5:d0:ac:59:35:8c:
                    ff:4e:91:43:50:3f:59:93:1e:6c:51:21:ee:58:14:
                    ab:fe:75:50:78:3e:4c:b0:1c:86:13:fa:6b:98:bc:
                    e0:3b:94:1e:85:52:dc:03:93:24:18:6e:cb:27:51:
                    45:e6:70:de:25:43:a4:0d:e1:4a:a5:ed:b6:7e:c8:
                    cd:6d:ee:2e:1d:27:73:5d:dc:45:30:80:aa:e3:b2:
                    41:0b:af:bd:44:87:da:b9:e5:1b:9d:7f:ae:e5:85:
                    82:a5
                Exponent: 65537 (0x10001)
        X509v3 extensions:
            X509v3 Authority Key Identifier: 
                keyid:BB:AF:7E:02:3D:FA:A6:F1:3C:84:8E:AD:EE:38:98:EC:D9:32:32:D4

            X509v3 Subject Key Identifier: 
                90:AF:6A:3A:94:5A:0B:D8:90:EA:12:56:73:DF:43:B4:3A:28:DA:E7
            X509v3 Key Usage: critical
                Digital Signature, Certificate Sign, CRL Sign
            X509v3 Basic Constraints: critical
                CA:TRUE, pathlen:0
            X509v3 Extended Key Usage: 
                TLS Web Server Authentication, TLS Web Client Authentication
            X509v3 Certificate Policies: 
                Policy: X509v3 Any Policy
                Policy: 2.23.140.1.2.1

            X509v3 CRL Distribution Points: 
                URI:http://crl.comodoca.com/COMODORSACertificationAuthority.crl

            Authority Information Access: 
                CA Issuers - URI:http://crt.comodoca.com/COMODORSAAddTrustCA.crt
                OCSP - URI:http://ocsp.comodoca.com

    Signature Algorithm: sha384WithRSAEncryption
        4e:2b:76:4f:92:1c:62:36:89:ba:77:c1:27:05:f4:1c:d6:44:
        9d:a9:9a:3e:aa:d5:66:66:01:3e:ea:49:e6:a2:35:bc:fa:f6:
        dd:95:8e:99:35:98:0e:36:18:75:b1:dd:dd:50:72:7c:ae:dc:
        77:88:ce:0f:f7:90:20:ca:a3:67:2e:1f:56:7f:7b:e1:44:ea:
        42:95:c4:5d:0d:01:50:46:15:f2:81:89:59:6c:8a:dd:8c:f1:
        12:a1:8d:3a:42:8a:98:f8:4b:34:7b:27:3b:08:b4:6f:24:3b:
        72:9d:63:74:58:3c:1a:6c:3f:4f:c7:11:9a:c8:a8:f5:b5:37:
        ef:10:45:c6:6c:d9:e0:5e:95:26:b3:eb:ad:a3:b9:ee:7f:0c:
        9a:66:35:73:32:60:4e:e5:dd:8a:61:2c:6e:52:11:77:68:96:
        d3:18:75:51:15:00:1b:74:88:dd:e1:c7:38:04:43:28:e9:16:
        fd:d9:05:d4:5d:47:27:60:d6:fb:38:3b:6c:72:a2:94:f8:42:
        1a:df:ed:6f:06:8c:45:c2:06:00:aa:e4:e8:dc:d9:b5:e1:73:
        78:ec:f6:23:dc:d1:dd:6c:8e:1a:8f:a5:ea:54:7c:96:b7:c3:
        fe:55:8e:8d:49:5e:fc:64:bb:cf:3e:bd:96:eb:69:cd:bf:e0:
        48:f1:62:82:10:e5:0c:46:57:f2:33:da:d0:c8:63:ed:c6:1f:
        94:05:96:4a:1a:91:d1:f7:eb:cf:8f:52:ae:0d:08:d9:3e:a8:
        a0:51:e9:c1:87:74:d5:c9:f7:74:ab:2e:53:fb:bb:7a:fb:97:
        e2:f8:1f:26:8f:b3:d2:a0:e0:37:5b:28:3b:31:e5:0e:57:2d:
        5a:b8:ad:79:ac:5e:20:66:1a:a5:b9:a6:b5:39:c1:f5:98:43:
        ff:ee:f9:a7:a7:fd:ee:ca:24:3d:80:16:c4:17:8f:8a:c1:60:
        a1:0c:ae:5b:43:47:91:4b:d5:9a:17:5f:f9:d4:87:c1:c2:8c:
        b7:e7:e2:0f:30:19:37:86:ac:e0:dc:42:03:e6:94:a8:9d:ae:
        fd:0f:24:51:94:ce:92:08:d1:fc:50:f0:03:40:7b:88:59:ed:
        0e:dd:ac:d2:77:82:34:dc:06:95:02:d8:90:f9:2d:ea:37:d5:
        1a:60:d0:67:20:d7:d8:42:0b:45:af:82:68:de:dd:66:24:37:
        90:29:94:19:46:19:25:b8:80:d7:cb:d4:86:28:6a:44:70:26:
        23:62:a9:9f:86:6f:bf:ba:90:70:d2:56:77:85:78:ef:ea:25:
        a9:17:ce:50:72:8c:00:3a:aa:e3:db:63:34:9f:f8:06:71:01:
        e2:82:20:d4:fe:6f:bd:b1
-----BEGIN CERTIFICATE-----
MIIGCDCCA/CgAwIBAgIQKy5u6tl1NmwUim7bo3yMBzANBgkqhkiG9w0BAQwFADCB
hTELMAkGA1UEBhMCR0IxGzAZBgNVBAgTEkdyZWF0ZXIgTWFuY2hlc3RlcjEQMA4G
A1UEBxMHU2FsZm9yZDEaMBgGA1UEChMRQ09NT0RPIENBIExpbWl0ZWQxKzApBgNV
BAMTIkNPTU9ETyBSU0EgQ2VydGlmaWNhdGlvbiBBdXRob3JpdHkwHhcNMTQwMjEy
MDAwMDAwWhcNMjkwMjExMjM1OTU5WjCBkDELMAkGA1UEBhMCR0IxGzAZBgNVBAgT
EkdyZWF0ZXIgTWFuY2hlc3RlcjEQMA4GA1UEBxMHU2FsZm9yZDEaMBgGA1UEChMR
Q09NT0RPIENBIExpbWl0ZWQxNjA0BgNVBAMTLUNPTU9ETyBSU0EgRG9tYWluIFZh
bGlkYXRpb24gU2VjdXJlIFNlcnZlciBDQTCCASIwDQYJKoZIhvcNAQEBBQADggEP
ADCCAQoCggEBAI7CAhnhoFmk6zg1jSz9AdDTScBkxwtiBUUWOqigwAwCfx3M28Sh
bXcDow+G+eMGnD4LgYqbSRutA776S9uMIO3Vzl5ljj4Nr0zCsLdFXlIvNN5IJGS0
Qa4Al/e+Z96e0HqnU4A7fK31llVvl0cKfIWLIpeNs4TgllfQcBhglo/uLQeTnaG6
ytHNe+nEKpooIZFNb5JPJaXyejXdJtxGpdCsWTWM/06RQ1A/WZMebFEh7lgUq/51
UHg+TLAchhP6a5i84DuUHoVS3AOTJBhuyydRReZw3iVDpA3hSqXttn7IzW3uLh0n
c13cRTCAquOyQQuvvUSH2rnlG51/ruWFgqUCAwEAAaOCAWUwggFhMB8GA1UdIwQY
MBaAFLuvfgI9+qbxPISOre44mOzZMjLUMB0GA1UdDgQWBBSQr2o6lFoL2JDqElZz
30O0Oija5zAOBgNVHQ8BAf8EBAMCAYYwEgYDVR0TAQH/BAgwBgEB/wIBADAdBgNV
HSUEFjAUBggrBgEFBQcDAQYIKwYBBQUHAwIwGwYDVR0gBBQwEjAGBgRVHSAAMAgG
BmeBDAECATBMBgNVHR8ERTBDMEGgP6A9hjtodHRwOi8vY3JsLmNvbW9kb2NhLmNv
bS9DT01PRE9SU0FDZXJ0aWZpY2F0aW9uQXV0aG9yaXR5LmNybDBxBggrBgEFBQcB
AQRlMGMwOwYIKwYBBQUHMAKGL2h0dHA6Ly9jcnQuY29tb2RvY2EuY29tL0NPTU9E
T1JTQUFkZFRydXN0Q0EuY3J0MCQGCCsGAQUFBzABhhhodHRwOi8vb2NzcC5jb21v
ZG9jYS5jb20wDQYJKoZIhvcNAQEMBQADggIBAE4rdk+SHGI2ibp3wScF9BzWRJ2p
mj6q1WZmAT7qSeaiNbz69t2Vjpk1mA42GHWx3d1Qcnyu3HeIzg/3kCDKo2cuH1Z/
e+FE6kKVxF0NAVBGFfKBiVlsit2M8RKhjTpCipj4SzR7JzsItG8kO3KdY3RYPBps
P0/HEZrIqPW1N+8QRcZs2eBelSaz662jue5/DJpmNXMyYE7l3YphLG5SEXdoltMY
dVEVABt0iN3hxzgEQyjpFv3ZBdRdRydg1vs4O2xyopT4Qhrf7W8GjEXCBgCq5Ojc
2bXhc3js9iPc0d1sjhqPpepUfJa3w/5Vjo1JXvxku88+vZbrac2/4EjxYoIQ5QxG
V/Iz2tDIY+3GH5QFlkoakdH368+PUq4NCNk+qKBR6cGHdNXJ93SrLlP7u3r7l+L4
HyaPs9Kg4DdbKDsx5Q5XLVq4rXmsXiBmGqW5prU5wfWYQ//u+aen/e7KJD2AFsQX
j4rBYKEMrltDR5FL1ZoXX/nUh8HCjLfn4g8wGTeGrODcQgPmlKidrv0PJFGUzpII
0fxQ8ANAe4hZ7Q7drNJ3gjTcBpUC2JD5Leo31Rpg0Gcg19hCC0Wvgmje3WYkN5Ap
lBlGGSW4gNfL1IYoakRwJiNiqZ+Gb7+6kHDSVneFeO/qJakXzlByjAA6quPbYzSf
+AZxAeKCINT+b72x
-----END CERTIFICATE-----

Certificate:
    Data:
        Version: 3 (0x2)
        Serial Number:
            27:66:ee:56:eb:49:f3:8e:ab:d7:70:a2:fc:84:de:22
        Signature Algorithm: sha384WithRSAEncryption
        Issuer: C=SE, O=AddTrust AB, OU=AddTrust External TTP Network, CN=AddTrust External CA Root
        Validity
            Not Before: May 30 10:48:38 2000 GMT
            Not After : May 30 10:48:38 2020 GMT
        Subject: C=GB, ST=Greater Manchester, L=Salford, O=COMODO CA Limited, CN=COMODO RSA Certification Authority
        Subject Public Key Info:
            Public Key Algorithm: rsaEncryption
            RSA Public Key: (4096 bit)
                Modulus (4096 bit):
                    00:91:e8:54:92:d2:0a:56:b1:ac:0d:24:dd:c5:cf:
                    44:67:74:99:2b:37:a3:7d:23:70:00:71:bc:53:df:
                    c4:fa:2a:12:8f:4b:7f:10:56:bd:9f:70:72:b7:61:
                    7f:c9:4b:0f:17:a7:3d:e3:b0:04:61:ee:ff:11:97:
                    c7:f4:86:3e:0a:fa:3e:5c:f9:93:e6:34:7a:d9:14:
                    6b:e7:9c:b3:85:a0:82:7a:76:af:71:90:d7:ec:fd:
                    0d:fa:9c:6c:fa:df:b0:82:f4:14:7e:f9:be:c4:a6:
                    2f:4f:7f:99:7f:b5:fc:67:43:72:bd:0c:00:d6:89:
                    eb:6b:2c:d3:ed:8f:98:1c:14:ab:7e:e5:e3:6e:fc:
                    d8:a8:e4:92:24:da:43:6b:62:b8:55:fd:ea:c1:bc:
                    6c:b6:8b:f3:0e:8d:9a:e4:9b:6c:69:99:f8:78:48:
                    30:45:d5:ad:e1:0d:3c:45:60:fc:32:96:51:27:bc:
                    67:c3:ca:2e:b6:6b:ea:46:c7:c7:20:a0:b1:1f:65:
                    de:48:08:ba:a4:4e:a9:f2:83:46:37:84:eb:e8:cc:
                    81:48:43:67:4e:72:2a:9b:5c:bd:4c:1b:28:8a:5c:
                    22:7b:b4:ab:98:d9:ee:e0:51:83:c3:09:46:4e:6d:
                    3e:99:fa:95:17:da:7c:33:57:41:3c:8d:51:ed:0b:
                    b6:5c:af:2c:63:1a:df:57:c8:3f:bc:e9:5d:c4:9b:
                    af:45:99:e2:a3:5a:24:b4:ba:a9:56:3d:cf:6f:aa:
                    ff:49:58:be:f0:a8:ff:f4:b8:ad:e9:37:fb:ba:b8:
                    f4:0b:3a:f9:e8:43:42:1e:89:d8:84:cb:13:f1:d9:
                    bb:e1:89:60:b8:8c:28:56:ac:14:1d:9c:0a:e7:71:
                    eb:cf:0e:dd:3d:a9:96:a1:48:bd:3c:f7:af:b5:0d:
                    22:4c:c0:11:81:ec:56:3b:f6:d3:a2:e2:5b:b7:b2:
                    04:22:52:95:80:93:69:e8:8e:4c:65:f1:91:03:2d:
                    70:74:02:ea:8b:67:15:29:69:52:02:bb:d7:df:50:
                    6a:55:46:bf:a0:a3:28:61:7f:70:d0:c3:a2:aa:2c:
                    21:aa:47:ce:28:9c:06:45:76:bf:82:18:27:b4:d5:
                    ae:b4:cb:50:e6:6b:f4:4c:86:71:30:e9:a6:df:16:
                    86:e0:d8:ff:40:dd:fb:d0:42:88:7f:a3:33:3a:2e:
                    5c:1e:41:11:81:63:ce:18:71:6b:2b:ec:a6:8a:b7:
                    31:5c:3a:6a:47:e0:c3:79:59:d6:20:1a:af:f2:6a:
                    98:aa:72:bc:57:4a:d2:4b:9d:bb:10:fc:b0:4c:41:
                    e5:ed:1d:3d:5e:28:9d:9c:cc:bf:b3:51:da:a7:47:
                    e5:84:53
                Exponent: 65537 (0x10001)
        X509v3 extensions:
            X509v3 Authority Key Identifier: 
                keyid:AD:BD:98:7A:34:B4:26:F7:FA:C4:26:54:EF:03:BD:E0:24:CB:54:1A

            X509v3 Subject Key Identifier: 
                BB:AF:7E:02:3D:FA:A6:F1:3C:84:8E:AD:EE:38:98:EC:D9:32:32:D4
            X509v3 Key Usage: critical
                Digital Signature, Certificate Sign, CRL Sign
            X509v3 Basic Constraints: critical
                CA:TRUE
            X509v3 Certificate Policies: 
                Policy: X509v3 Any Policy

            X509v3 CRL Distribution Points: 
                URI:http://crl.usertrust.com/AddTrustExternalCARoot.crl

            Authority Information Access: 
                OCSP - URI:http://ocsp.usertrust.com

    Signature Algorithm: sha384WithRSAEncryption
        64:bf:83:f1:5f:9a:85:d0:cd:b8:a1:29:57:0d:e8:5a:f7:d1:
        e9:3e:f2:76:04:6e:f1:52:70:bb:1e:3c:ff:4d:0d:74:6a:cc:
        81:82:25:d3:c3:a0:2a:5d:4c:f5:ba:8b:a1:6d:c4:54:09:75:
        c7:e3:27:0e:5d:84:79:37:40:13:77:f5:b4:ac:1c:d0:3b:ab:
        17:12:d6:ef:34:18:7e:2b:e9:79:d3:ab:57:45:0c:af:28:fa:
        d0:db:e5:50:95:88:bb:df:85:57:69:7d:92:d8:52:ca:73:81:
        bf:1c:f3:e6:b8:6e:66:11:05:b3:1e:94:2d:7f:91:95:92:59:
        f1:4c:ce:a3:91:71:4c:7c:47:0c:3b:0b:19:f6:a1:b1:6c:86:
        3e:5c:aa:c4:2e:82:cb:f9:07:96:ba:48:4d:90:f2:94:c8:a9:
        73:a2:eb:06:7b:23:9d:de:a2:f3:4d:55:9f:7a:61:45:98:18:
        68:c7:5e:40:6b:23:f5:79:7a:ef:8c:b5:6b:8b:b7:6f:46:f4:
        7b:f1:3d:4b:04:d8:93:80:59:5a:e0:41:24:1d:b2:8f:15:60:
        58:47:db:ef:6e:46:fd:15:f5:d9:5f:9a:b3:db:d8:b8:e4:40:
        b3:cd:97:39:ae:85:bb:1d:8e:bc:dc:87:9b:d1:a6:ef:f1:3b:
        6f:10:38:6f
-----BEGIN CERTIFICATE-----
MIIFdDCCBFygAwIBAgIQJ2buVutJ846r13Ci/ITeIjANBgkqhkiG9w0BAQwFADBv
MQswCQYDVQQGEwJTRTEUMBIGA1UEChMLQWRkVHJ1c3QgQUIxJjAkBgNVBAsTHUFk
ZFRydXN0IEV4dGVybmFsIFRUUCBOZXR3b3JrMSIwIAYDVQQDExlBZGRUcnVzdCBF
eHRlcm5hbCBDQSBSb290MB4XDTAwMDUzMDEwNDgzOFoXDTIwMDUzMDEwNDgzOFow
gYUxCzAJBgNVBAYTAkdCMRswGQYDVQQIExJHcmVhdGVyIE1hbmNoZXN0ZXIxEDAO
BgNVBAcTB1NhbGZvcmQxGjAYBgNVBAoTEUNPTU9ETyBDQSBMaW1pdGVkMSswKQYD
VQQDEyJDT01PRE8gUlNBIENlcnRpZmljYXRpb24gQXV0aG9yaXR5MIICIjANBgkq
hkiG9w0BAQEFAAOCAg8AMIICCgKCAgEAkehUktIKVrGsDSTdxc9EZ3SZKzejfSNw
AHG8U9/E+ioSj0t/EFa9n3Byt2F/yUsPF6c947AEYe7/EZfH9IY+Cvo+XPmT5jR6
2RRr55yzhaCCenavcZDX7P0N+pxs+t+wgvQUfvm+xKYvT3+Zf7X8Z0NyvQwA1onr
ayzT7Y+YHBSrfuXjbvzYqOSSJNpDa2K4Vf3qwbxstovzDo2a5JtsaZn4eEgwRdWt
4Q08RWD8MpZRJ7xnw8outmvqRsfHIKCxH2XeSAi6pE6p8oNGN4Tr6MyBSENnTnIq
m1y9TBsoilwie7SrmNnu4FGDwwlGTm0+mfqVF9p8M1dBPI1R7Qu2XK8sYxrfV8g/
vOldxJuvRZnio1oktLqpVj3Pb6r/SVi+8Kj/9Lit6Tf7urj0Czr56ENCHonYhMsT
8dm74YlguIwoVqwUHZwK53Hrzw7dPamWoUi9PPevtQ0iTMARgexWO/bTouJbt7IE
IlKVgJNp6I5MZfGRAy1wdALqi2cVKWlSArvX31BqVUa/oKMoYX9w0MOiqiwhqkfO
KJwGRXa/ghgntNWutMtQ5mv0TIZxMOmm3xaG4Nj/QN370EKIf6MzOi5cHkERgWPO
GHFrK+ymircxXDpqR+DDeVnWIBqv8mqYqnK8V0rSS527EPywTEHl7R09XiidnMy/
s1Hap0flhFMCAwEAAaOB9DCB8TAfBgNVHSMEGDAWgBStvZh6NLQm9/rEJlTvA73g
JMtUGjAdBgNVHQ4EFgQUu69+Aj36pvE8hI6t7jiY7NkyMtQwDgYDVR0PAQH/BAQD
AgGGMA8GA1UdEwEB/wQFMAMBAf8wEQYDVR0gBAowCDAGBgRVHSAAMEQGA1UdHwQ9
MDswOaA3oDWGM2h0dHA6Ly9jcmwudXNlcnRydXN0LmNvbS9BZGRUcnVzdEV4dGVy
bmFsQ0FSb290LmNybDA1BggrBgEFBQcBAQQpMCcwJQYIKwYBBQUHMAGGGWh0dHA6
Ly9vY3NwLnVzZXJ0cnVzdC5jb20wDQYJKoZIhvcNAQEMBQADggEBAGS/g/FfmoXQ
zbihKVcN6Fr30ek+8nYEbvFScLsePP9NDXRqzIGCJdPDoCpdTPW6i6FtxFQJdcfj
Jw5dhHk3QBN39bSsHNA7qxcS1u80GH4r6XnTq1dFDK8o+tDb5VCViLvfhVdpfZLY
Uspzgb8c8+a4bmYRBbMelC1/kZWSWfFMzqORcUx8Rww7Cxn2obFshj5cqsQugsv5
B5a6SE2Q8pTIqXOi6wZ7I53eovNNVZ96YUWYGGjHXkBrI/V5eu+MtWuLt29G9Hvx
PUsE2JOAWVrgQSQdso8VYFhH2+9uRv0V9dlfmrPb2LjkQLPNlzmuhbsdjrzch5vR
pu/xO28QOG8=
-----END CERTIFICATE-----

Certificate:
    Data:
        Version: 3 (0x2)
        Serial Number: 1 (0x1)
        Signature Algorithm: sha1WithRSAEncryption
        Issuer: C=SE, O=AddTrust AB, OU=AddTrust External TTP Network, CN=AddTrust External CA Root
        Validity
            Not Before: May 30 10:48:38 2000 GMT
            Not After : May 30 10:48:38 2020 GMT
        Subject: C=SE, O=AddTrust AB, OU=AddTrust External TTP Network, CN=AddTrust External CA Root
        Subject Public Key Info:
            Public Key Algorithm: rsaEncryption
            RSA Public Key: (2048 bit)
                Modulus (2048 bit):
                    00:b7:f7:1a:33:e6:f2:00:04:2d:39:e0:4e:5b:ed:
                    1f:bc:6c:0f:cd:b5:fa:23:b6:ce:de:9b:11:33:97:
                    a4:29:4c:7d:93:9f:bd:4a:bc:93:ed:03:1a:e3:8f:
                    cf:e5:6d:50:5a:d6:97:29:94:5a:80:b0:49:7a:db:
                    2e:95:fd:b8:ca:bf:37:38:2d:1e:3e:91:41:ad:70:
                    56:c7:f0:4f:3f:e8:32:9e:74:ca:c8:90:54:e9:c6:
                    5f:0f:78:9d:9a:40:3c:0e:ac:61:aa:5e:14:8f:9e:
                    87:a1:6a:50:dc:d7:9a:4e:af:05:b3:a6:71:94:9c:
                    71:b3:50:60:0a:c7:13:9d:38:07:86:02:a8:e9:a8:
                    69:26:18:90:ab:4c:b0:4f:23:ab:3a:4f:84:d8:df:
                    ce:9f:e1:69:6f:bb:d7:42:d7:6b:44:e4:c7:ad:ee:
                    6d:41:5f:72:5a:71:08:37:b3:79:65:a4:59:a0:94:
                    37:f7:00:2f:0d:c2:92:72:da:d0:38:72:db:14:a8:
                    45:c4:5d:2a:7d:b7:b4:d6:c4:ee:ac:cd:13:44:b7:
                    c9:2b:dd:43:00:25:fa:61:b9:69:6a:58:23:11:b7:
                    a7:33:8f:56:75:59:f5:cd:29:d7:46:b7:0a:2b:65:
                    b6:d3:42:6f:15:b2:b8:7b:fb:ef:e9:5d:53:d5:34:
                    5a:27
                Exponent: 65537 (0x10001)
        X509v3 extensions:
            X509v3 Subject Key Identifier: 
                AD:BD:98:7A:34:B4:26:F7:FA:C4:26:54:EF:03:BD:E0:24:CB:54:1A
            X509v3 Key Usage: 
                Certificate Sign, CRL Sign
            X509v3 Basic Constraints: critical
                CA:TRUE
            X509v3 Authority Key Identifier: 
                keyid:AD:BD:98:7A:34:B4:26:F7:FA:C4:26:54:EF:03:BD:E0:24:CB:54:1A
                DirName:/C=SE/O=AddTrust AB/OU=AddTrust External TTP Network/CN=AddTrust External CA Root
                serial:01

    Signature Algorithm: sha1WithRSAEncryption
        b0:9b:e0:85:25:c2:d6:23:e2:0f:96:06:92:9d:41:98:9c:d9:
        84:79:81:d9:1e:5b:14:07:23:36:65:8f:b0:d8:77:bb:ac:41:
        6c:47:60:83:51:b0:f9:32:3d:e7:fc:f6:26:13:c7:80:16:a5:
        bf:5a:fc:87:cf:78:79:89:21:9a:e2:4c:07:0a:86:35:bc:f2:
        de:51:c4:d2:96:b7:dc:7e:4e:ee:70:fd:1c:39:eb:0c:02:51:
        14:2d:8e:bd:16:e0:c1:df:46:75:e7:24:ad:ec:f4:42:b4:85:
        93:70:10:67:ba:9d:06:35:4a:18:d3:2b:7a:cc:51:42:a1:7a:
        63:d1:e6:bb:a1:c5:2b:c2:36:be:13:0d:e6:bd:63:7e:79:7b:
        a7:09:0d:40:ab:6a:dd:8f:8a:c3:f6:f6:8c:1a:42:05:51:d4:
        45:f5:9f:a7:62:21:68:15:20:43:3c:99:e7:7c:bd:24:d8:a9:
        91:17:73:88:3f:56:1b:31:38:18:b4:71:0f:9a:cd:c8:0e:9e:
        8e:2e:1b:e1:8c:98:83:cb:1f:31:f1:44:4c:c6:04:73:49:76:
        60:0f:c7:f8:bd:17:80:6b:2e:e9:cc:4c:0e:5a:9a:79:0f:20:
        0a:2e:d5:9e:63:26:1e:55:92:94:d8:82:17:5a:7b:d0:bc:c7:
        8f:4e:86:04
-----BEGIN CERTIFICATE-----
MIIENjCCAx6gAwIBAgIBATANBgkqhkiG9w0BAQUFADBvMQswCQYDVQQGEwJTRTEU
MBIGA1UEChMLQWRkVHJ1c3QgQUIxJjAkBgNVBAsTHUFkZFRydXN0IEV4dGVybmFs
IFRUUCBOZXR3b3JrMSIwIAYDVQQDExlBZGRUcnVzdCBFeHRlcm5hbCBDQSBSb290
MB4XDTAwMDUzMDEwNDgzOFoXDTIwMDUzMDEwNDgzOFowbzELMAkGA1UEBhMCU0Ux
FDASBgNVBAoTC0FkZFRydXN0IEFCMSYwJAYDVQQLEx1BZGRUcnVzdCBFeHRlcm5h
bCBUVFAgTmV0d29yazEiMCAGA1UEAxMZQWRkVHJ1c3QgRXh0ZXJuYWwgQ0EgUm9v
dDCCASIwDQYJKoZIhvcNAQEBBQADggEPADCCAQoCggEBALf3GjPm8gAELTngTlvt
H7xsD821+iO2zt6bETOXpClMfZOfvUq8k+0DGuOPz+VtUFrWlymUWoCwSXrbLpX9
uMq/NzgtHj6RQa1wVsfwTz/oMp50ysiQVOnGXw94nZpAPA6sYapeFI+eh6FqUNzX
mk6vBbOmcZSccbNQYArHE504B4YCqOmoaSYYkKtMsE8jqzpPhNjfzp/haW+710LX
a0Tkx63ubUFfclpxCDezeWWkWaCUN/cALw3CknLa0Dhy2xSoRcRdKn23tNbE7qzN
E0S3ySvdQwAl+mG5aWpYIxG3pzOPVnVZ9c0p10a3CitlttNCbxWyuHv77+ldU9U0
WicCAwEAAaOB3DCB2TAdBgNVHQ4EFgQUrb2YejS0Jvf6xCZU7wO94CTLVBowCwYD
VR0PBAQDAgEGMA8GA1UdEwEB/wQFMAMBAf8wgZkGA1UdIwSBkTCBjoAUrb2YejS0
Jvf6xCZU7wO94CTLVBqhc6RxMG8xCzAJBgNVBAYTAlNFMRQwEgYDVQQKEwtBZGRU
cnVzdCBBQjEmMCQGA1UECxMdQWRkVHJ1c3QgRXh0ZXJuYWwgVFRQIE5ldHdvcmsx
IjAgBgNVBAMTGUFkZFRydXN0IEV4dGVybmFsIENBIFJvb3SCAQEwDQYJKoZIhvcN
AQEFBQADggEBALCb4IUlwtYj4g+WBpKdQZic2YR5gdkeWxQHIzZlj7DYd7usQWxH
YINRsPkyPef89iYTx4AWpb9a/IfPeHmJIZriTAcKhjW88t5RxNKWt9x+Tu5w/Rw5
6wwCURQtjr0W4MHfRnXnJK3s9EK0hZNwEGe6nQY1ShjTK3rMUUKhemPR5ruhxSvC
Nr4TDea9Y355e6cJDUCrat2PisP29owaQgVR1EX1n6diIWgVIEM8med8vSTYqZEX
c4g/VhsxOBi0cQ+azcgOno4uG+GMmIPLHzHxREzGBHNJdmAPx/i9F4BrLunMTA5a
mnkPIAou1Z5jJh5VkpTYghdae9C8x49OhgQ=
-----END CERTIFICATE-----

